target datalayout = "e-m:e-p270:32:32-p271:32:32-p272:64:64-i64:64-i128:128-f80:128-n8:16:32:64-S128"
target triple = "x86_64-pc-linux-gnu"

%struct.DdManager = type { %struct.DdNode, ptr, ptr, ptr, ptr, ptr, ptr, ptr, i32, i32, double, double, double, i32, i32, i32, i32, i32, i32, ptr, ptr, %struct.DdSubtable, i32, i32, i32, i32, i32, i32, i32, double, i32, i32, i32, ptr, i64, double, i32, ptr, ptr, ptr, ptr, ptr, ptr, ptr, i32, ptr, ptr, ptr, ptr, ptr, ptr, i32, i32, i32, double, i32, i32, i32, i32, double, double, i32, i32, i32, i32, i32, i32, i32, i32, i32, ptr, ptr, i32, i32, i32, i32, i32, i32, ptr, ptr, ptr, ptr, ptr, ptr, ptr, ptr, i32, i64, i64, i64, i32, i64, i64, double, double, double, double, double, double, i32, ptr, ptr, i64 }
%struct.DdNode = type { i32, i32, ptr, %union.anon, i64 }
%union.anon = type { %struct.DdChildren }
%struct.DdChildren = type { ptr, ptr }
%struct.DdSubtable = type { ptr, i32, i32, i32, i32, i32, i32, i32, i32, i32, i32, i32 }

; Function Attrs: nounwind uwtable
define ptr @Cudd_addThreshold(ptr noundef %0, ptr noundef %1, ptr noundef %2) #0 {
  %4 = alloca ptr, align 8
  %5 = alloca ptr, align 8
  %6 = alloca ptr, align 8
  %7 = alloca ptr, align 8
  %8 = alloca ptr, align 8
  %9 = alloca ptr, align 8
  %10 = alloca i32, align 4
  store ptr %0, ptr %5, align 8, !tbaa !3
  store ptr %1, ptr %6, align 8, !tbaa !35
  store ptr %2, ptr %7, align 8, !tbaa !35
  call void @llvm.lifetime.start.p0(i64 8, ptr %8) #4
  call void @llvm.lifetime.start.p0(i64 8, ptr %9) #4
  %11 = load ptr, ptr %6, align 8, !tbaa !35
  %12 = load ptr, ptr %11, align 8, !tbaa !9
  store ptr %12, ptr %8, align 8, !tbaa !9
  %13 = load ptr, ptr %7, align 8, !tbaa !35
  %14 = load ptr, ptr %13, align 8, !tbaa !9
  store ptr %14, ptr %9, align 8, !tbaa !9
  %15 = load ptr, ptr %8, align 8, !tbaa !9
  %16 = load ptr, ptr %9, align 8, !tbaa !9
  %17 = icmp eq ptr %15, %16
  br i1 %17, label %24, label %18

18:                                               ; preds = %3
  %19 = load ptr, ptr %8, align 8, !tbaa !9
  %20 = load ptr, ptr %5, align 8, !tbaa !3
  %21 = getelementptr inbounds nuw %struct.DdManager, ptr %20, i32 0, i32 3
  %22 = load ptr, ptr %21, align 8, !tbaa !39
  %23 = icmp eq ptr %19, %22
  br i1 %23, label %24, label %26

24:                                               ; preds = %18, %3
  %25 = load ptr, ptr %8, align 8, !tbaa !9
  store ptr %25, ptr %4, align 8
  store i32 1, ptr %10, align 4
  br label %51

26:                                               ; preds = %18
  %27 = load ptr, ptr %8, align 8, !tbaa !9
  %28 = getelementptr inbounds nuw %struct.DdNode, ptr %27, i32 0, i32 0
  %29 = load i32, ptr %28, align 8, !tbaa !30
  %30 = icmp eq i32 %29, 2147483647
  br i1 %30, label %31, label %50

31:                                               ; preds = %26
  %32 = load ptr, ptr %9, align 8, !tbaa !9
  %33 = getelementptr inbounds nuw %struct.DdNode, ptr %32, i32 0, i32 0
  %34 = load i32, ptr %33, align 8, !tbaa !30
  %35 = icmp eq i32 %34, 2147483647
  br i1 %35, label %36, label %50

36:                                               ; preds = %31
  %37 = load ptr, ptr %8, align 8, !tbaa !9
  %38 = getelementptr inbounds nuw %struct.DdNode, ptr %37, i32 0, i32 3
  %39 = load double, ptr %38, align 8, !tbaa !33
  %40 = load ptr, ptr %9, align 8, !tbaa !9
  %41 = getelementptr inbounds nuw %struct.DdNode, ptr %40, i32 0, i32 3
  %42 = load double, ptr %41, align 8, !tbaa !33
  %43 = fcmp oge double %39, %42
  br i1 %43, label %44, label %46

44:                                               ; preds = %36
  %45 = load ptr, ptr %8, align 8, !tbaa !9
  store ptr %45, ptr %4, align 8
  store i32 1, ptr %10, align 4
  br label %51

46:                                               ; preds = %36
  %47 = load ptr, ptr %5, align 8, !tbaa !3
  %48 = getelementptr inbounds nuw %struct.DdManager, ptr %47, i32 0, i32 2
  %49 = load ptr, ptr %48, align 8, !tbaa !36
  store ptr %49, ptr %4, align 8
  store i32 1, ptr %10, align 4
  br label %51

50:                                               ; preds = %31, %26
  store ptr null, ptr %4, align 8
  store i32 1, ptr %10, align 4
  br label %51

51:                                               ; preds = %50, %46, %44, %24
  call void @llvm.lifetime.end.p0(i64 8, ptr %9) #4
  call void @llvm.lifetime.end.p0(i64 8, ptr %8) #4
  %52 = load ptr, ptr %4, align 8
  ret ptr %52
}