; Function Attrs: mustprogress nofree norecurse nosync nounwind willreturn memory(read, inaccessiblemem: none) uwtable
define ptr @Cudd_addThreshold(ptr noundef readonly captures(none) %0, ptr noundef readonly captures(none) %1, ptr noundef readonly captures(none) %2) local_unnamed_addr #2 {
  %4 = load ptr, ptr %1, align 8, !tbaa !26
  %5 = load ptr, ptr %2, align 8, !tbaa !26
  %6 = icmp eq ptr %4, %5
  br i1 %6, label %26, label %7

7:                                                ; preds = %3
  %8 = getelementptr inbounds nuw i8, ptr %0, i64 56
  %9 = load ptr, ptr %8, align 8, !tbaa !34
  %10 = icmp eq ptr %4, %9
  br i1 %10, label %26, label %11

11:                                               ; preds = %7
  %12 = load i32, ptr %4, align 8, !tbaa !27
  %13 = icmp eq i32 %12, 2147483647
  br i1 %13, label %14, label %26

14:                                               ; preds = %11
  %15 = load i32, ptr %5, align 8, !tbaa !27
  %16 = icmp eq i32 %15, 2147483647
  br i1 %16, label %17, label %26

17:                                               ; preds = %14
  %18 = getelementptr inbounds nuw i8, ptr %4, i64 16
  %19 = load double, ptr %18, align 8, !tbaa !30
  %20 = getelementptr inbounds nuw i8, ptr %5, i64 16
  %21 = load double, ptr %20, align 8, !tbaa !30
  %22 = fcmp ult double %19, %21
  br i1 %22, label %23, label %26

23:                                               ; preds = %17
  %24 = getelementptr inbounds nuw i8, ptr %0, i64 48
  %25 = load ptr, ptr %24, align 8, !tbaa !32
  br label %26

26:                                               ; preds = %11, %14, %17, %3, %7, %23
  %.0 = phi ptr [ %25, %23 ], [ %4, %7 ], [ %4, %3 ], [ %4, %17 ], [ null, %14 ], [ null, %11 ]
  ret ptr %.0
}